#include <math.h>
#include <stdio.h>
#include <stdlib.h>
#include <string.h>

int f(int x){
	int i,z=1;
	if(x==2)return 1;
	else {
		for(i=2;i<x;i++){
			if(x%i==0){z=0;
			break;}
		}
	}
	return z;
}
int main(int argc, char* argv[])
{	int n;
	scanf("%d",&n);
int z=0;
	int i,o=0;
	int a[10000];
	for(i=2;i<=n;i++){
		if(f(i)==1){
		a[o]=i;
		o++;
	}
	}
	
	
	for(i=0;i<o;i++)
	{if(a[i]+2==a[i+1]){
		printf("%d %d\n",a[i],a[i+1]);
		z=1;
	}
		
	}

if(z==0) printf("empty");

	return 0;
}
