; ModuleID = '60/1046.c'
source_filename = "60/1046.c"
target datalayout = "e-m:e-p270:32:32-p271:32:32-p272:64:64-i64:64-f80:128-n8:16:32:64-S128"
target triple = "x86_64-pc-linux-gnu"

@.str = private unnamed_addr constant [3 x i8] c"%d\00", align 1
@.str.1 = private unnamed_addr constant [7 x i8] c"%d %d\0A\00", align 1
@.str.2 = private unnamed_addr constant [6 x i8] c"empty\00", align 1

; Function Attrs: noinline nounwind uwtable
define dso_local i32 @f(i32 %0) #0 {
  %2 = alloca i32, align 4
  %3 = alloca i32, align 4
  %4 = alloca i32, align 4
  %5 = alloca i32, align 4
  store i32 %0, i32* %3, align 4
  store i32 1, i32* %5, align 4
  %6 = load i32, i32* %3, align 4
  %7 = icmp eq i32 %6, 2
  br i1 %7, label %8, label %9

8:                                                ; preds = %1
  store i32 1, i32* %2, align 4
  br label %27

9:                                                ; preds = %1
  store i32 2, i32* %4, align 4
  br label %10

10:                                               ; preds = %21, %9
  %11 = load i32, i32* %4, align 4
  %12 = load i32, i32* %3, align 4
  %13 = icmp slt i32 %11, %12
  br i1 %13, label %14, label %24

14:                                               ; preds = %10
  %15 = load i32, i32* %3, align 4
  %16 = load i32, i32* %4, align 4
  %17 = srem i32 %15, %16
  %18 = icmp eq i32 %17, 0
  br i1 %18, label %19, label %20

19:                                               ; preds = %14
  store i32 0, i32* %5, align 4
  br label %24

20:                                               ; preds = %14
  br label %21

21:                                               ; preds = %20
  %22 = load i32, i32* %4, align 4
  %23 = add nsw i32 %22, 1
  store i32 %23, i32* %4, align 4
  br label %10

24:                                               ; preds = %19, %10
  br label %25

25:                                               ; preds = %24
  %26 = load i32, i32* %5, align 4
  store i32 %26, i32* %2, align 4
  br label %27

27:                                               ; preds = %25, %8
  %28 = load i32, i32* %2, align 4
  ret i32 %28
}

; Function Attrs: noinline nounwind uwtable
define dso_local i32 @main(i32 %0, i8** %1) #0 {
  %3 = alloca i32, align 4
  %4 = alloca i32, align 4
  %5 = alloca i8**, align 8
  %6 = alloca i32, align 4
  %7 = alloca i32, align 4
  %8 = alloca i32, align 4
  %9 = alloca i32, align 4
  %10 = alloca [10000 x i32], align 16
  store i32 0, i32* %3, align 4
  store i32 %0, i32* %4, align 4
  store i8** %1, i8*** %5, align 8
  %11 = call i32 (i8*, ...) @__isoc99_scanf(i8* getelementptr inbounds ([3 x i8], [3 x i8]* @.str, i64 0, i64 0), i32* %6)
  store i32 0, i32* %7, align 4
  store i32 0, i32* %9, align 4
  store i32 2, i32* %8, align 4
  br label %12

12:                                               ; preds = %28, %2
  %13 = load i32, i32* %8, align 4
  %14 = load i32, i32* %6, align 4
  %15 = icmp sle i32 %13, %14
  br i1 %15, label %16, label %31

16:                                               ; preds = %12
  %17 = load i32, i32* %8, align 4
  %18 = call i32 @f(i32 %17)
  %19 = icmp eq i32 %18, 1
  br i1 %19, label %20, label %27

20:                                               ; preds = %16
  %21 = load i32, i32* %8, align 4
  %22 = load i32, i32* %9, align 4
  %23 = sext i32 %22 to i64
  %24 = getelementptr inbounds [10000 x i32], [10000 x i32]* %10, i64 0, i64 %23
  store i32 %21, i32* %24, align 4
  %25 = load i32, i32* %9, align 4
  %26 = add nsw i32 %25, 1
  store i32 %26, i32* %9, align 4
  br label %27

27:                                               ; preds = %20, %16
  br label %28

28:                                               ; preds = %27
  %29 = load i32, i32* %8, align 4
  %30 = add nsw i32 %29, 1
  store i32 %30, i32* %8, align 4
  br label %12

31:                                               ; preds = %12
  store i32 0, i32* %8, align 4
  br label %32

32:                                               ; preds = %60, %31
  %33 = load i32, i32* %8, align 4
  %34 = load i32, i32* %9, align 4
  %35 = icmp slt i32 %33, %34
  br i1 %35, label %36, label %63

36:                                               ; preds = %32
  %37 = load i32, i32* %8, align 4
  %38 = sext i32 %37 to i64
  %39 = getelementptr inbounds [10000 x i32], [10000 x i32]* %10, i64 0, i64 %38
  %40 = load i32, i32* %39, align 4
  %41 = add nsw i32 %40, 2
  %42 = load i32, i32* %8, align 4
  %43 = add nsw i32 %42, 1
  %44 = sext i32 %43 to i64
  %45 = getelementptr inbounds [10000 x i32], [10000 x i32]* %10, i64 0, i64 %44
  %46 = load i32, i32* %45, align 4
  %47 = icmp eq i32 %41, %46
  br i1 %47, label %48, label %59

48:                                               ; preds = %36
  %49 = load i32, i32* %8, align 4
  %50 = sext i32 %49 to i64
  %51 = getelementptr inbounds [10000 x i32], [10000 x i32]* %10, i64 0, i64 %50
  %52 = load i32, i32* %51, align 4
  %53 = load i32, i32* %8, align 4
  %54 = add nsw i32 %53, 1
  %55 = sext i32 %54 to i64
  %56 = getelementptr inbounds [10000 x i32], [10000 x i32]* %10, i64 0, i64 %55
  %57 = load i32, i32* %56, align 4
  %58 = call i32 (i8*, ...) @printf(i8* getelementptr inbounds ([7 x i8], [7 x i8]* @.str.1, i64 0, i64 0), i32 %52, i32 %57)
  store i32 1, i32* %7, align 4
  br label %59

59:                                               ; preds = %48, %36
  br label %60

60:                                               ; preds = %59
  %61 = load i32, i32* %8, align 4
  %62 = add nsw i32 %61, 1
  store i32 %62, i32* %8, align 4
  br label %32

63:                                               ; preds = %32
  %64 = load i32, i32* %7, align 4
  %65 = icmp eq i32 %64, 0
  br i1 %65, label %66, label %68

66:                                               ; preds = %63
  %67 = call i32 (i8*, ...) @printf(i8* getelementptr inbounds ([6 x i8], [6 x i8]* @.str.2, i64 0, i64 0))
  br label %68

68:                                               ; preds = %66, %63
  ret i32 0
}

declare dso_local i32 @__isoc99_scanf(i8*, ...) #1

declare dso_local i32 @printf(i8*, ...) #1


!llvm.module.flags = !{!0}
!llvm.ident = !{!1}

!0 = !{i32 1, !"wchar_size", i32 4}
!1 = !{!"clang version 10.0.0-4ubuntu1 "}
